target datalayout = "e-m:e-p270:32:32-p271:32:32-p272:64:64-i64:64-i128:128-f80:128-n8:16:32:64-S128"
target triple = "x86_64-pc-linux-gnu"

%"class.std::__cxx11::basic_string" = type { %"struct.std::__cxx11::basic_string<char>::_Alloc_hider", i64, %union.anon }
%"struct.std::__cxx11::basic_string<char>::_Alloc_hider" = type { ptr }
%union.anon = type { i64, [8 x i8] }
%"struct.(anonymous namespace)::ExchangeWithCallback" = type { %"class.std::vector", i64, i8, %"class.std::map" }
%"class.std::vector" = type { %"struct.std::_Vector_base" }
%"struct.std::_Vector_base" = type { %"struct.std::_Vector_base<std::unique_ptr<(anonymous namespace)::Event>, std::allocator<std::unique_ptr<(anonymous namespace)::Event>>>::_Vector_impl" }
%"struct.std::_Vector_base<std::unique_ptr<(anonymous namespace)::Event>, std::allocator<std::unique_ptr<(anonymous namespace)::Event>>>::_Vector_impl" = type { %"struct.std::_Vector_base<std::unique_ptr<(anonymous namespace)::Event>, std::allocator<std::unique_ptr<(anonymous namespace)::Event>>>::_Vector_impl_data" }
%"struct.std::_Vector_base<std::unique_ptr<(anonymous namespace)::Event>, std::allocator<std::unique_ptr<(anonymous namespace)::Event>>>::_Vector_impl_data" = type { ptr, ptr, ptr }
%"class.std::map" = type { %"class.std::_Rb_tree" }
%"class.std::_Rb_tree" = type { %"struct.std::_Rb_tree<int, std::pair<const int, PROJ_NETWORK_HANDLE *>, std::_Select1st<std::pair<const int, PROJ_NETWORK_HANDLE *>>, std::less<int>>::_Rb_tree_impl" }
%"struct.std::_Rb_tree<int, std::pair<const int, PROJ_NETWORK_HANDLE *>, std::_Select1st<std::pair<const int, PROJ_NETWORK_HANDLE *>>, std::less<int>>::_Rb_tree_impl" = type { [8 x i8], %"struct.std::_Rb_tree_header" }
%"struct.std::_Rb_tree_header" = type { %"struct.std::_Rb_tree_node_base", i64 }
%"struct.std::_Rb_tree_node_base" = type { i32, ptr, ptr, ptr }
%"struct.(anonymous namespace)::Event" = type { ptr, %"class.std::__cxx11::basic_string", ptr }
%"struct.(anonymous namespace)::GetHeaderValueEvent" = type { %"struct.(anonymous namespace)::Event", i32, %"class.std::__cxx11::basic_string", %"class.std::__cxx11::basic_string" }
%"class.std::unique_ptr.65" = type { %"struct.std::__uniq_ptr_data.66" }
%"struct.std::__uniq_ptr_data.66" = type { %"class.std::__uniq_ptr_impl.67" }
%"class.std::__uniq_ptr_impl.67" = type { %"class.std::tuple.68" }
%"class.std::tuple.68" = type { %"struct.std::_Tuple_impl.69" }
%"struct.std::_Tuple_impl.69" = type { %"struct.std::_Head_base.72" }
%"struct.std::_Head_base.72" = type { ptr }

@stderr = external global ptr, align 8
@_ZTIN12_GLOBAL__N_15EventE = internal constant { ptr, ptr } { ptr getelementptr inbounds (ptr, ptr @_ZTVN10__cxxabiv117__class_type_infoE, i64 2), ptr @_ZTSN12_GLOBAL__N_15EventE }, align 8
@.str.113 = private unnamed_addr constant [39 x i8] c"unexpected call to get_header_value()\0A\00", align 1
@_ZTIN12_GLOBAL__N_119GetHeaderValueEventE = internal constant { ptr, ptr, ptr } { ptr getelementptr inbounds (ptr, ptr @_ZTVN10__cxxabiv120__si_class_type_infoE, i64 2), ptr @_ZTSN12_GLOBAL__N_119GetHeaderValueEventE, ptr @_ZTIN12_GLOBAL__N_15EventE }, align 8
@.str.114 = private unnamed_addr constant [65 x i8] c"unexpected call to get_header_value(). Was expecting a %s event\0A\00", align 1
@.str.115 = private unnamed_addr constant [44 x i8] c"get_header_value() called with bad context\0A\00", align 1
@.str.116 = private unnamed_addr constant [72 x i8] c"wrong call to get_header_value(%s). Was expecting get_header_value(%s)\0A\00", align 1
@.str.117 = private unnamed_addr constant [43 x i8] c"get_header_value() called with bad handle\0A\00", align 1

; Function Attrs: mustprogress nounwind uwtable
define internal noundef nonnull align 8 dereferenceable(8) ptr @_ZNSt10_Head_baseILm0EPN12_GLOBAL__N_15EventELb0EE7_M_headERKS3_(ptr noundef nonnull align 8 dereferenceable(8) %0) #5 align 2 {
  %2 = alloca ptr, align 8
  store ptr %0, ptr %2, align 8, !tbaa !359
  %3 = load ptr, ptr %2, align 8, !tbaa !359
  %4 = getelementptr inbounds nuw %"struct.std::_Head_base.72", ptr %3, i32 0, i32 0
  ret ptr %4
}

; Function Attrs: mustprogress nounwind uwtable
define internal noundef nonnull align 8 dereferenceable(8) ptr @_ZNSt11_Tuple_implILm0EJPN12_GLOBAL__N_15EventESt14default_deleteIS1_EEE7_M_headERKS5_(ptr noundef nonnull align 8 dereferenceable(8) %0) #5 align 2 {
  %2 = alloca ptr, align 8
  store ptr %0, ptr %2, align 8, !tbaa !357
  %3 = load ptr, ptr %2, align 8, !tbaa !357
  %4 = call noundef nonnull align 8 dereferenceable(8) ptr @_ZNSt10_Head_baseILm0EPN12_GLOBAL__N_15EventELb0EE7_M_headERKS3_(ptr noundef nonnull align 8 dereferenceable(8) %3) #3
  ret ptr %4
}

; Function Attrs: mustprogress nounwind uwtable
define internal noundef nonnull align 8 dereferenceable(8) ptr @_ZSt12__get_helperILm0EPN12_GLOBAL__N_15EventEJSt14default_deleteIS1_EEERKT0_RKSt11_Tuple_implIXT_EJS5_DpT1_EE(ptr noundef nonnull align 8 dereferenceable(8) %0) #5 {
  %2 = alloca ptr, align 8
  store ptr %0, ptr %2, align 8, !tbaa !357
  %3 = load ptr, ptr %2, align 8, !tbaa !357
  %4 = call noundef nonnull align 8 dereferenceable(8) ptr @_ZNSt11_Tuple_implILm0EJPN12_GLOBAL__N_15EventESt14default_deleteIS1_EEE7_M_headERKS5_(ptr noundef nonnull align 8 dereferenceable(8) %3) #3
  ret ptr %4
}

; Function Attrs: mustprogress nounwind uwtable
define internal noundef nonnull align 8 dereferenceable(8) ptr @_ZSt3getILm0EJPN12_GLOBAL__N_15EventESt14default_deleteIS1_EEERKNSt13tuple_elementIXT_ESt5tupleIJDpT0_EEE4typeERKS9_(ptr noundef nonnull align 8 dereferenceable(8) %0) #5 {
  %2 = alloca ptr, align 8
  store ptr %0, ptr %2, align 8, !tbaa !355
  %3 = load ptr, ptr %2, align 8, !tbaa !355
  %4 = call noundef nonnull align 8 dereferenceable(8) ptr @_ZSt12__get_helperILm0EPN12_GLOBAL__N_15EventEJSt14default_deleteIS1_EEERKT0_RKSt11_Tuple_implIXT_EJS5_DpT1_EE(ptr noundef nonnull align 8 dereferenceable(8) %3) #3
  ret ptr %4
}

; Function Attrs: inlinehint mustprogress nounwind uwtable
define linkonce_odr dso_local noundef zeroext i1 @_ZSteqIcSt11char_traitsIcESaIcEEbRKNSt7__cxx1112basic_stringIT_T0_T1_EEPKS5_(ptr noundef nonnull align 8 dereferenceable(32) %0, ptr noundef %1) #10 comdat {
  %3 = alloca ptr, align 8
  %4 = alloca ptr, align 8
  store ptr %0, ptr %3, align 8, !tbaa !11
  store ptr %1, ptr %4, align 8, !tbaa !13
  %5 = load ptr, ptr %3, align 8, !tbaa !11
  %6 = load ptr, ptr %4, align 8, !tbaa !13
  %7 = call noundef i32 @_ZNKSt7__cxx1112basic_stringIcSt11char_traitsIcESaIcEE7compareEPKc(ptr noundef nonnull align 8 dereferenceable(32) %5, ptr noundef %6) #3
  %8 = icmp eq i32 %7, 0
  ret i1 %8
}

; Function Attrs: mustprogress nounwind uwtable
define available_externally noundef ptr @_ZNKSt7__cxx1112basic_stringIcSt11char_traitsIcESaIcEE7_M_dataEv(ptr noundef nonnull align 8 dereferenceable(32) %0) #5 align 2 {
  %2 = alloca ptr, align 8
  store ptr %0, ptr %2, align 8, !tbaa !11
  %3 = load ptr, ptr %2, align 8
  %4 = getelementptr inbounds nuw %"class.std::__cxx11::basic_string", ptr %3, i32 0, i32 0
  %5 = getelementptr inbounds nuw %"struct.std::__cxx11::basic_string<char>::_Alloc_hider", ptr %4, i32 0, i32 0
  %6 = load ptr, ptr %5, align 8, !tbaa !87
  ret ptr %6
}

; Function Attrs: mustprogress nounwind uwtable
define internal noundef ptr @_ZNKSt15__uniq_ptr_implIN12_GLOBAL__N_15EventESt14default_deleteIS1_EE6_M_ptrEv(ptr noundef nonnull align 8 dereferenceable(8) %0) #5 align 2 {
  %2 = alloca ptr, align 8
  store ptr %0, ptr %2, align 8, !tbaa !351
  %3 = load ptr, ptr %2, align 8
  %4 = getelementptr inbounds nuw %"class.std::__uniq_ptr_impl.67", ptr %3, i32 0, i32 0
  %5 = call noundef nonnull align 8 dereferenceable(8) ptr @_ZSt3getILm0EJPN12_GLOBAL__N_15EventESt14default_deleteIS1_EEERKNSt13tuple_elementIXT_ESt5tupleIJDpT0_EEE4typeERKS9_(ptr noundef nonnull align 8 dereferenceable(8) %4) #3
  %6 = load ptr, ptr %5, align 8, !tbaa !353
  ret ptr %6
}

; Function Attrs: inlinehint mustprogress uwtable
define linkonce_odr dso_local noundef zeroext i1 @_ZStneIcSt11char_traitsIcESaIcEEbRKNSt7__cxx1112basic_stringIT_T0_T1_EEPKS5_(ptr noundef nonnull align 8 dereferenceable(32) %0, ptr noundef %1) #8 comdat {
  %3 = alloca ptr, align 8
  %4 = alloca ptr, align 8
  store ptr %0, ptr %3, align 8, !tbaa !11
  store ptr %1, ptr %4, align 8, !tbaa !13
  %5 = load ptr, ptr %3, align 8, !tbaa !11
  %6 = load ptr, ptr %4, align 8, !tbaa !13
  %7 = call noundef zeroext i1 @_ZSteqIcSt11char_traitsIcESaIcEEbRKNSt7__cxx1112basic_stringIT_T0_T1_EEPKS5_(ptr noundef nonnull align 8 dereferenceable(32) %5, ptr noundef %6)
  %8 = xor i1 %7, true
  ret i1 %8
}

; Function Attrs: mustprogress nounwind uwtable
define available_externally noundef ptr @_ZNKSt7__cxx1112basic_stringIcSt11char_traitsIcESaIcEE5c_strEv(ptr noundef nonnull align 8 dereferenceable(32) %0) #5 align 2 {
  %2 = alloca ptr, align 8
  store ptr %0, ptr %2, align 8, !tbaa !11
  %3 = load ptr, ptr %2, align 8
  %4 = call noundef ptr @_ZNKSt7__cxx1112basic_stringIcSt11char_traitsIcESaIcEE7_M_dataEv(ptr noundef nonnull align 8 dereferenceable(32) %3)
  ret ptr %4
}

; Function Attrs: mustprogress nounwind uwtable
define internal noundef ptr @_ZNKSt10unique_ptrIN12_GLOBAL__N_15EventESt14default_deleteIS1_EEptEv(ptr noundef nonnull align 8 dereferenceable(8) %0) #5 align 2 {
  %2 = alloca ptr, align 8
  store ptr %0, ptr %2, align 8, !tbaa !347
  %3 = load ptr, ptr %2, align 8
  %4 = call noundef ptr @_ZNKSt10unique_ptrIN12_GLOBAL__N_15EventESt14default_deleteIS1_EE3getEv(ptr noundef nonnull align 8 dereferenceable(8) %3) #3
  ret ptr %4
}

; Function Attrs: mustprogress nounwind uwtable
define internal noundef ptr @_ZNKSt10unique_ptrIN12_GLOBAL__N_15EventESt14default_deleteIS1_EE3getEv(ptr noundef nonnull align 8 dereferenceable(8) %0) #5 align 2 {
  %2 = alloca ptr, align 8
  store ptr %0, ptr %2, align 8, !tbaa !347
  %3 = load ptr, ptr %2, align 8
  %4 = getelementptr inbounds nuw %"class.std::unique_ptr.65", ptr %3, i32 0, i32 0
  %5 = call noundef ptr @_ZNKSt15__uniq_ptr_implIN12_GLOBAL__N_15EventESt14default_deleteIS1_EE6_M_ptrEv(ptr noundef nonnull align 8 dereferenceable(8) %4) #3
  ret ptr %5
}

; Function Attrs: mustprogress nounwind uwtable
define internal noundef nonnull align 8 dereferenceable(8) ptr @_ZNSt6vectorISt10unique_ptrIN12_GLOBAL__N_15EventESt14default_deleteIS2_EESaIS5_EEixEm(ptr noundef nonnull align 8 dereferenceable(24) %0, i64 noundef %1) #5 align 2 {
  %3 = alloca ptr, align 8
  %4 = alloca i64, align 8
  store ptr %0, ptr %3, align 8, !tbaa !295
  store i64 %1, ptr %4, align 8, !tbaa !84
  %5 = load ptr, ptr %3, align 8
  %6 = getelementptr inbounds nuw %"struct.std::_Vector_base", ptr %5, i32 0, i32 0
  %7 = getelementptr inbounds nuw %"struct.std::_Vector_base<std::unique_ptr<(anonymous namespace)::Event>, std::allocator<std::unique_ptr<(anonymous namespace)::Event>>>::_Vector_impl_data", ptr %6, i32 0, i32 0
  %8 = load ptr, ptr %7, align 8, !tbaa !327
  %9 = load i64, ptr %4, align 8, !tbaa !84
  %10 = getelementptr inbounds nuw %"class.std::unique_ptr.65", ptr %8, i64 %9
  ret ptr %10
}

; Function Attrs: mustprogress nounwind uwtable
define internal noundef i64 @_ZNKSt6vectorISt10unique_ptrIN12_GLOBAL__N_15EventESt14default_deleteIS2_EESaIS5_EE4sizeEv(ptr noundef nonnull align 8 dereferenceable(24) %0) #5 align 2 {
  %2 = alloca ptr, align 8
  store ptr %0, ptr %2, align 8, !tbaa !295
  %3 = load ptr, ptr %2, align 8
  %4 = getelementptr inbounds nuw %"struct.std::_Vector_base", ptr %3, i32 0, i32 0
  %5 = getelementptr inbounds nuw %"struct.std::_Vector_base<std::unique_ptr<(anonymous namespace)::Event>, std::allocator<std::unique_ptr<(anonymous namespace)::Event>>>::_Vector_impl_data", ptr %4, i32 0, i32 1
  %6 = load ptr, ptr %5, align 8, !tbaa !297
  %7 = getelementptr inbounds nuw %"struct.std::_Vector_base", ptr %3, i32 0, i32 0
  %8 = getelementptr inbounds nuw %"struct.std::_Vector_base<std::unique_ptr<(anonymous namespace)::Event>, std::allocator<std::unique_ptr<(anonymous namespace)::Event>>>::_Vector_impl_data", ptr %7, i32 0, i32 0
  %9 = load ptr, ptr %8, align 8, !tbaa !327
  %10 = ptrtoint ptr %6 to i64
  %11 = ptrtoint ptr %9 to i64
  %12 = sub i64 %10, %11
  %13 = sdiv exact i64 %12, 8
  ret i64 %13
}

; Function Attrs: mustprogress uwtable
define internal noundef ptr @_ZN12_GLOBAL__N_120get_header_value_cbkEP6pj_ctxP19PROJ_NETWORK_HANDLEPKcPv(ptr noundef %0, ptr noundef %1, ptr noundef %2, ptr noundef %3) #6 {
  %5 = alloca ptr, align 8
  %6 = alloca ptr, align 8
  %7 = alloca ptr, align 8
  %8 = alloca ptr, align 8
  %9 = alloca ptr, align 8
  %10 = alloca ptr, align 8
  %11 = alloca i32, align 4
  %12 = alloca ptr, align 8
  store ptr %0, ptr %6, align 8, !tbaa !109
  store ptr %1, ptr %7, align 8, !tbaa !278
  store ptr %2, ptr %8, align 8, !tbaa !13
  store ptr %3, ptr %9, align 8, !tbaa !24
  call void @llvm.lifetime.start.p0(i64 8, ptr %10) #3
  %13 = load ptr, ptr %9, align 8, !tbaa !24
  store ptr %13, ptr %10, align 8, !tbaa !254
  %14 = load ptr, ptr %10, align 8, !tbaa !254
  %15 = getelementptr inbounds nuw %"struct.(anonymous namespace)::ExchangeWithCallback", ptr %14, i32 0, i32 2
  %16 = load i8, ptr %15, align 8, !tbaa !272, !range !101, !noundef !102
  %17 = trunc i8 %16 to i1
  br i1 %17, label %18, label %19

18:                                               ; preds = %4
  store ptr null, ptr %5, align 8
  store i32 1, ptr %11, align 4
  br label %110

19:                                               ; preds = %4
  %20 = load ptr, ptr %10, align 8, !tbaa !254
  %21 = getelementptr inbounds nuw %"struct.(anonymous namespace)::ExchangeWithCallback", ptr %20, i32 0, i32 1
  %22 = load i64, ptr %21, align 8, !tbaa !256
  %23 = load ptr, ptr %10, align 8, !tbaa !254
  %24 = getelementptr inbounds nuw %"struct.(anonymous namespace)::ExchangeWithCallback", ptr %23, i32 0, i32 0
  %25 = call noundef i64 @_ZNKSt6vectorISt10unique_ptrIN12_GLOBAL__N_15EventESt14default_deleteIS2_EESaIS5_EE4sizeEv(ptr noundef nonnull align 8 dereferenceable(24) %24) #3
  %26 = icmp uge i64 %22, %25
  br i1 %26, label %27, label %32

27:                                               ; preds = %19
  %28 = load ptr, ptr @stderr, align 8, !tbaa !103
  %29 = call i32 (ptr, ptr, ...) @fprintf(ptr noundef %28, ptr noundef @.str.113) #3
  %30 = load ptr, ptr %10, align 8, !tbaa !254
  %31 = getelementptr inbounds nuw %"struct.(anonymous namespace)::ExchangeWithCallback", ptr %30, i32 0, i32 2
  store i8 1, ptr %31, align 8, !tbaa !272
  store ptr null, ptr %5, align 8
  store i32 1, ptr %11, align 4
  br label %110

32:                                               ; preds = %19
  call void @llvm.lifetime.start.p0(i64 8, ptr %12) #3
  %33 = load ptr, ptr %10, align 8, !tbaa !254
  %34 = getelementptr inbounds nuw %"struct.(anonymous namespace)::ExchangeWithCallback", ptr %33, i32 0, i32 0
  %35 = load ptr, ptr %10, align 8, !tbaa !254
  %36 = getelementptr inbounds nuw %"struct.(anonymous namespace)::ExchangeWithCallback", ptr %35, i32 0, i32 1
  %37 = load i64, ptr %36, align 8, !tbaa !256
  %38 = call noundef nonnull align 8 dereferenceable(8) ptr @_ZNSt6vectorISt10unique_ptrIN12_GLOBAL__N_15EventESt14default_deleteIS2_EESaIS5_EEixEm(ptr noundef nonnull align 8 dereferenceable(24) %34, i64 noundef %37) #3
  %39 = call noundef ptr @_ZNKSt10unique_ptrIN12_GLOBAL__N_15EventESt14default_deleteIS1_EE3getEv(ptr noundef nonnull align 8 dereferenceable(8) %38) #3
  %40 = icmp eq ptr %39, null
  br i1 %40, label %43, label %41

41:                                               ; preds = %32
  %42 = call ptr @__dynamic_cast(ptr %39, ptr @_ZTIN12_GLOBAL__N_15EventE, ptr @_ZTIN12_GLOBAL__N_119GetHeaderValueEventE, i64 0) #3
  br label %44

43:                                               ; preds = %32
  br label %44

44:                                               ; preds = %43, %41
  %45 = phi ptr [ %42, %41 ], [ null, %43 ]
  store ptr %45, ptr %12, align 8, !tbaa !282
  %46 = load ptr, ptr %12, align 8, !tbaa !282
  %47 = icmp ne ptr %46, null
  br i1 %47, label %62, label %48

48:                                               ; preds = %44
  %49 = load ptr, ptr @stderr, align 8, !tbaa !103
  %50 = load ptr, ptr %10, align 8, !tbaa !254
  %51 = getelementptr inbounds nuw %"struct.(anonymous namespace)::ExchangeWithCallback", ptr %50, i32 0, i32 0
  %52 = load ptr, ptr %10, align 8, !tbaa !254
  %53 = getelementptr inbounds nuw %"struct.(anonymous namespace)::ExchangeWithCallback", ptr %52, i32 0, i32 1
  %54 = load i64, ptr %53, align 8, !tbaa !256
  %55 = call noundef nonnull align 8 dereferenceable(8) ptr @_ZNSt6vectorISt10unique_ptrIN12_GLOBAL__N_15EventESt14default_deleteIS2_EESaIS5_EEixEm(ptr noundef nonnull align 8 dereferenceable(24) %51, i64 noundef %54) #3
  %56 = call noundef ptr @_ZNKSt10unique_ptrIN12_GLOBAL__N_15EventESt14default_deleteIS1_EEptEv(ptr noundef nonnull align 8 dereferenceable(8) %55) #3
  %57 = getelementptr inbounds nuw %"struct.(anonymous namespace)::Event", ptr %56, i32 0, i32 1
  %58 = call noundef ptr @_ZNKSt7__cxx1112basic_stringIcSt11char_traitsIcESaIcEE5c_strEv(ptr noundef nonnull align 8 dereferenceable(32) %57) #3
  %59 = call i32 (ptr, ptr, ...) @fprintf(ptr noundef %49, ptr noundef @.str.114, ptr noundef %58) #3
  %60 = load ptr, ptr %10, align 8, !tbaa !254
  %61 = getelementptr inbounds nuw %"struct.(anonymous namespace)::ExchangeWithCallback", ptr %60, i32 0, i32 2
  store i8 1, ptr %61, align 8, !tbaa !272
  store ptr null, ptr %5, align 8
  store i32 1, ptr %11, align 4
  br label %109

62:                                               ; preds = %44
  %63 = load ptr, ptr %12, align 8, !tbaa !282
  %64 = getelementptr inbounds nuw %"struct.(anonymous namespace)::Event", ptr %63, i32 0, i32 2
  %65 = load ptr, ptr %64, align 8, !tbaa !230
  %66 = load ptr, ptr %6, align 8, !tbaa !109
  %67 = icmp ne ptr %65, %66
  br i1 %67, label %68, label %73

68:                                               ; preds = %62
  %69 = load ptr, ptr @stderr, align 8, !tbaa !103
  %70 = call i32 (ptr, ptr, ...) @fprintf(ptr noundef %69, ptr noundef @.str.115) #3
  %71 = load ptr, ptr %10, align 8, !tbaa !254
  %72 = getelementptr inbounds nuw %"struct.(anonymous namespace)::ExchangeWithCallback", ptr %71, i32 0, i32 2
  store i8 1, ptr %72, align 8, !tbaa !272
  store ptr null, ptr %5, align 8
  store i32 1, ptr %11, align 4
  br label %109

73:                                               ; preds = %62
  %74 = load ptr, ptr %12, align 8, !tbaa !282
  %75 = getelementptr inbounds nuw %"struct.(anonymous namespace)::GetHeaderValueEvent", ptr %74, i32 0, i32 2
  %76 = load ptr, ptr %8, align 8, !tbaa !13
  %77 = call noundef zeroext i1 @_ZStneIcSt11char_traitsIcESaIcEEbRKNSt7__cxx1112basic_stringIT_T0_T1_EEPKS5_(ptr noundef nonnull align 8 dereferenceable(32) %75, ptr noundef %76)
  br i1 %77, label %78, label %87

78:                                               ; preds = %73
  %79 = load ptr, ptr @stderr, align 8, !tbaa !103
  %80 = load ptr, ptr %8, align 8, !tbaa !13
  %81 = load ptr, ptr %12, align 8, !tbaa !282
  %82 = getelementptr inbounds nuw %"struct.(anonymous namespace)::GetHeaderValueEvent", ptr %81, i32 0, i32 2
  %83 = call noundef ptr @_ZNKSt7__cxx1112basic_stringIcSt11char_traitsIcESaIcEE5c_strEv(ptr noundef nonnull align 8 dereferenceable(32) %82) #3
  %84 = call i32 (ptr, ptr, ...) @fprintf(ptr noundef %79, ptr noundef @.str.116, ptr noundef %80, ptr noundef %83) #3
  %85 = load ptr, ptr %10, align 8, !tbaa !254
  %86 = getelementptr inbounds nuw %"struct.(anonymous namespace)::ExchangeWithCallback", ptr %85, i32 0, i32 2
  store i8 1, ptr %86, align 8, !tbaa !272
  store ptr null, ptr %5, align 8
  store i32 1, ptr %11, align 4
  br label %109

87:                                               ; preds = %73
  %88 = load ptr, ptr %10, align 8, !tbaa !254
  %89 = getelementptr inbounds nuw %"struct.(anonymous namespace)::ExchangeWithCallback", ptr %88, i32 0, i32 3
  %90 = load ptr, ptr %12, align 8, !tbaa !282
  %91 = getelementptr inbounds nuw %"struct.(anonymous namespace)::GetHeaderValueEvent", ptr %90, i32 0, i32 1
  %92 = call noundef nonnull align 8 dereferenceable(8) ptr @_ZNSt3mapIiP19PROJ_NETWORK_HANDLESt4lessIiESaISt4pairIKiS1_EEEixERS5_(ptr noundef nonnull align 8 dereferenceable(48) %89, ptr noundef nonnull align 4 dereferenceable(4) %91)
  %93 = load ptr, ptr %92, align 8, !tbaa !278
  %94 = load ptr, ptr %7, align 8, !tbaa !278
  %95 = icmp ne ptr %93, %94
  br i1 %95, label %96, label %101

96:                                               ; preds = %87
  %97 = load ptr, ptr @stderr, align 8, !tbaa !103
  %98 = call i32 (ptr, ptr, ...) @fprintf(ptr noundef %97, ptr noundef @.str.117) #3
  %99 = load ptr, ptr %10, align 8, !tbaa !254
  %100 = getelementptr inbounds nuw %"struct.(anonymous namespace)::ExchangeWithCallback", ptr %99, i32 0, i32 2
  store i8 1, ptr %100, align 8, !tbaa !272
  store ptr null, ptr %5, align 8
  store i32 1, ptr %11, align 4
  br label %109

101:                                              ; preds = %87
  %102 = load ptr, ptr %10, align 8, !tbaa !254
  %103 = getelementptr inbounds nuw %"struct.(anonymous namespace)::ExchangeWithCallback", ptr %102, i32 0, i32 1
  %104 = load i64, ptr %103, align 8, !tbaa !256
  %105 = add i64 %104, 1
  store i64 %105, ptr %103, align 8, !tbaa !256
  %106 = load ptr, ptr %12, align 8, !tbaa !282
  %107 = getelementptr inbounds nuw %"struct.(anonymous namespace)::GetHeaderValueEvent", ptr %106, i32 0, i32 3
  %108 = call noundef ptr @_ZNKSt7__cxx1112basic_stringIcSt11char_traitsIcESaIcEE5c_strEv(ptr noundef nonnull align 8 dereferenceable(32) %107) #3
  store ptr %108, ptr %5, align 8
  store i32 1, ptr %11, align 4
  br label %109

109:                                              ; preds = %101, %96, %78, %68, %48
  call void @llvm.lifetime.end.p0(i64 8, ptr %12) #3
  br label %110

110:                                              ; preds = %109, %27, %18
  call void @llvm.lifetime.end.p0(i64 8, ptr %10) #3
  %111 = load ptr, ptr %5, align 8
  ret ptr %111
}