; Function Attrs: mustprogress uwtable
define internal noundef ptr @_ZN12_GLOBAL__N_120get_header_value_cbkEP6pj_ctxP19PROJ_NETWORK_HANDLEPKcPv(ptr noundef readnone %0, ptr noundef readnone %1, ptr noundef %2, ptr noundef %3) #4 {
  %5 = getelementptr inbounds nuw i8, ptr %3, i64 32
  %6 = load i8, ptr %5, align 8, !tbaa !203, !range !45, !noundef !46
  %7 = trunc nuw i8 %6 to i1
  br i1 %7, label %54, label %8

8:                                                ; preds = %4
  %9 = getelementptr inbounds nuw i8, ptr %3, i64 24
  %10 = load i64, ptr %9, align 8, !tbaa !133
  %.val = load ptr, ptr %3, align 8, !tbaa !100
  %11 = getelementptr i8, ptr %3, i64 8
  %.val31 = load ptr, ptr %11, align 8, !tbaa !93
  %12 = ptrtoint ptr %.val31 to i64
  %13 = ptrtoint ptr %.val to i64
  %14 = sub i64 %12, %13
  %15 = ashr exact i64 %14, 3
  %.not = icmp ult i64 %10, %15
  br i1 %.not, label %19, label %16

16:                                               ; preds = %8
  %17 = load ptr, ptr @stderr, align 8, !tbaa !30
  %18 = tail call i64 @fwrite(ptr nonnull @.str.113, i64 38, i64 1, ptr %17) #33
  store i8 1, ptr %5, align 8, !tbaa !203
  br label %54

19:                                               ; preds = %8
  %20 = getelementptr inbounds nuw %"class.std::unique_ptr.65", ptr %.val, i64 %10
  %.val34 = load ptr, ptr %20, align 8, !tbaa !106
  %21 = icmp eq ptr %.val34, null
  br i1 %21, label %.thread, label %22

22:                                               ; preds = %19
  %23 = tail call ptr @__dynamic_cast(ptr nonnull %.val34, ptr nonnull @_ZTIN12_GLOBAL__N_15EventE, ptr nonnull @_ZTIN12_GLOBAL__N_119GetHeaderValueEventE, i64 0) #29
  %.not28 = icmp eq ptr %23, null
  br i1 %.not28, label %.thread, label %28

.thread:                                          ; preds = %19, %22
  %24 = load ptr, ptr @stderr, align 8, !tbaa !30
  %25 = getelementptr inbounds nuw i8, ptr %.val34, i64 8
  %26 = load ptr, ptr %25, align 8, !tbaa !12
  %27 = tail call i32 (ptr, ptr, ...) @fprintf(ptr noundef %24, ptr noundef nonnull @.str.114, ptr noundef %26) #34
  store i8 1, ptr %5, align 8, !tbaa !203
  br label %54

28:                                               ; preds = %22
  %29 = getelementptr inbounds nuw i8, ptr %23, i64 40
  %30 = load ptr, ptr %29, align 8, !tbaa !79
  %.not29 = icmp eq ptr %30, %0
  br i1 %.not29, label %34, label %31

31:                                               ; preds = %28
  %32 = load ptr, ptr @stderr, align 8, !tbaa !30
  %33 = tail call i64 @fwrite(ptr nonnull @.str.115, i64 43, i64 1, ptr %32) #33
  store i8 1, ptr %5, align 8, !tbaa !203
  br label %54

34:                                               ; preds = %28
  %35 = getelementptr inbounds nuw i8, ptr %23, i64 56
  %36 = tail call noundef i32 @_ZNKSt7__cxx1112basic_stringIcSt11char_traitsIcESaIcEE7compareEPKc(ptr noundef nonnull align 8 dereferenceable(32) %35, ptr noundef %2) #29
  %.not37 = icmp eq i32 %36, 0
  br i1 %.not37, label %41, label %37

37:                                               ; preds = %34
  %38 = load ptr, ptr @stderr, align 8, !tbaa !30
  %39 = load ptr, ptr %35, align 8, !tbaa !12
  %40 = tail call i32 (ptr, ptr, ...) @fprintf(ptr noundef %38, ptr noundef nonnull @.str.116, ptr noundef %2, ptr noundef %39) #34
  store i8 1, ptr %5, align 8, !tbaa !203
  br label %54

41:                                               ; preds = %34
  %42 = getelementptr inbounds nuw i8, ptr %3, i64 40
  %43 = getelementptr inbounds nuw i8, ptr %23, i64 48
  %44 = tail call noundef nonnull align 8 dereferenceable(8) ptr @_ZNSt3mapIiP19PROJ_NETWORK_HANDLESt4lessIiESaISt4pairIKiS1_EEEixERS5_(ptr noundef nonnull align 8 dereferenceable(48) %42, ptr noundef nonnull align 4 dereferenceable(4) %43)
  %45 = load ptr, ptr %44, align 8, !tbaa !205
  %.not30 = icmp eq ptr %45, %1
  br i1 %.not30, label %49, label %46

46:                                               ; preds = %41
  %47 = load ptr, ptr @stderr, align 8, !tbaa !30
  %48 = tail call i64 @fwrite(ptr nonnull @.str.117, i64 42, i64 1, ptr %47) #33
  store i8 1, ptr %5, align 8, !tbaa !203
  br label %54

49:                                               ; preds = %41
  %50 = load i64, ptr %9, align 8, !tbaa !133
  %51 = add i64 %50, 1
  store i64 %51, ptr %9, align 8, !tbaa !133
  %52 = getelementptr inbounds nuw i8, ptr %23, i64 88
  %53 = load ptr, ptr %52, align 8, !tbaa !12
  br label %54

54:                                               ; preds = %.thread, %31, %37, %46, %49, %4, %16
  %.0 = phi ptr [ null, %16 ], [ null, %4 ], [ null, %31 ], [ null, %37 ], [ null, %46 ], [ %53, %49 ], [ null, %.thread ]
  ret ptr %.0
}